target datalayout = "e-m:e-p270:32:32-p271:32:32-p272:64:64-i64:64-i128:128-f80:128-n8:16:32:64-S128"
target triple = "x86_64-pc-linux-gnu"

@g_ascii_table = external constant ptr, align 8

; Function Attrs: null_pointer_is_valid sspstrong uwtable
define ptr @format_text_chr(ptr noundef %0, ptr noundef %1, i64 noundef %2, i8 noundef signext %3) #0 {
  %5 = alloca ptr, align 8
  %6 = alloca ptr, align 8
  %7 = alloca i64, align 8
  %8 = alloca i8, align 1
  %9 = alloca ptr, align 8
  %10 = alloca ptr, align 8
  store ptr %0, ptr %5, align 8
  store ptr %1, ptr %6, align 8
  store i64 %2, ptr %7, align 8
  store i8 %3, ptr %8, align 1
  call void @llvm.lifetime.start.p0(i64 8, ptr %9) #15
  %11 = load ptr, ptr %5, align 8
  %12 = load i64, ptr %7, align 8
  %13 = add i64 %12, 1
  %14 = call noalias ptr @wmem_strbuf_new_sized(ptr noundef %11, i64 noundef %13)
  store ptr %14, ptr %9, align 8
  call void @llvm.lifetime.start.p0(i64 8, ptr %10) #15
  %15 = load ptr, ptr %6, align 8
  store ptr %15, ptr %10, align 8
  br label %16

16:                                               ; preds = %54, %4
  %17 = load ptr, ptr %10, align 8
  %18 = load ptr, ptr %6, align 8
  %19 = load i64, ptr %7, align 8
  %20 = getelementptr i8, ptr %18, i64 %19
  %21 = icmp ult ptr %17, %20
  br i1 %21, label %23, label %22

22:                                               ; preds = %16
  call void @llvm.lifetime.end.p0(i64 8, ptr %10) #15
  br label %57

23:                                               ; preds = %16
  %24 = load ptr, ptr @g_ascii_table, align 8
  %25 = load ptr, ptr %10, align 8
  %26 = load i8, ptr %25, align 1
  %27 = zext i8 %26 to i64
  %28 = getelementptr i16, ptr %24, i64 %27
  %29 = load i16, ptr %28, align 2
  %30 = zext i16 %29 to i32
  %31 = and i32 %30, 64
  %32 = icmp ne i32 %31, 0
  br i1 %32, label %33, label %37

33:                                               ; preds = %23
  %34 = load ptr, ptr %9, align 8
  %35 = load ptr, ptr %10, align 8
  %36 = load i8, ptr %35, align 1
  call void @wmem_strbuf_append_c(ptr noundef %34, i8 noundef signext %36)
  br label %53

37:                                               ; preds = %23
  %38 = load ptr, ptr @g_ascii_table, align 8
  %39 = load ptr, ptr %10, align 8
  %40 = load i8, ptr %39, align 1
  %41 = zext i8 %40 to i64
  %42 = getelementptr i16, ptr %38, i64 %41
  %43 = load i16, ptr %42, align 2
  %44 = zext i16 %43 to i32
  %45 = and i32 %44, 256
  %46 = icmp ne i32 %45, 0
  br i1 %46, label %47, label %49

47:                                               ; preds = %37
  %48 = load ptr, ptr %9, align 8
  call void @wmem_strbuf_append_c(ptr noundef %48, i8 noundef signext 32)
  br label %52

49:                                               ; preds = %37
  %50 = load ptr, ptr %9, align 8
  %51 = load i8, ptr %8, align 1
  call void @wmem_strbuf_append_c(ptr noundef %50, i8 noundef signext %51)
  br label %52

52:                                               ; preds = %49, %47
  br label %53

53:                                               ; preds = %52, %33
  br label %54

54:                                               ; preds = %53
  %55 = load ptr, ptr %10, align 8
  %56 = getelementptr i8, ptr %55, i32 1
  store ptr %56, ptr %10, align 8
  br label %16, !llvm.loop !35

57:                                               ; preds = %22
  %58 = load ptr, ptr %9, align 8
  %59 = call ptr @wmem_strbuf_finalize(ptr noundef %58)
  call void @llvm.lifetime.end.p0(i64 8, ptr %9) #15
  ret ptr %59
}