; Function Attrs: null_pointer_is_valid sspstrong uwtable
define ptr @format_text_chr(ptr noundef %0, ptr noundef readonly captures(address) %1, i64 noundef %2, i8 noundef signext %3) local_unnamed_addr #0 {
  %5 = add i64 %2, 1
  %6 = tail call noalias ptr @wmem_strbuf_new_sized(ptr noundef %0, i64 noundef %5)
  %7 = getelementptr i8, ptr %1, i64 %2
  %8 = icmp ult ptr %1, %7
  br i1 %8, label %.lr.ph, label %._crit_edge

.lr.ph:                                           ; preds = %4
  %9 = load ptr, ptr @g_ascii_table, align 8
  br label %11

._crit_edge:                                      ; preds = %11, %4
  %10 = tail call ptr @wmem_strbuf_finalize(ptr noundef %6)
  ret ptr %10

11:                                               ; preds = %.lr.ph, %11
  %.015 = phi ptr [ %1, %.lr.ph ], [ %19, %11 ]
  %12 = load i8, ptr %.015, align 1
  %13 = zext i8 %12 to i64
  %14 = getelementptr i16, ptr %9, i64 %13
  %15 = load i16, ptr %14, align 2
  %16 = zext i16 %15 to i32
  %17 = and i32 %16, 64
  %.not = icmp eq i32 %17, 0
  %18 = and i32 %16, 256
  %.not14 = icmp eq i32 %18, 0
  %. = select i1 %.not14, i8 %3, i8 32
  %.sink = select i1 %.not, i8 %., i8 %12
  tail call void @wmem_strbuf_append_c(ptr noundef %6, i8 noundef signext %.sink)
  %19 = getelementptr i8, ptr %.015, i64 1
  %exitcond.not = icmp eq ptr %19, %7
  br i1 %exitcond.not, label %._crit_edge, label %11, !llvm.loop !33
}